target datalayout = "e-m:e-p270:32:32-p271:32:32-p272:64:64-i64:64-i128:128-f80:128-n8:16:32:64-S128"
target triple = "x86_64-pc-linux-gnu"

; Function Attrs: inlinehint nounwind uwtable
define internal i32 @VP8RGBToY(i32 noundef %0, i32 noundef %1, i32 noundef %2, i32 noundef %3) #3 {
  %5 = alloca i32, align 4
  %6 = alloca i32, align 4
  %7 = alloca i32, align 4
  %8 = alloca i32, align 4
  %9 = alloca i32, align 4
  store i32 %0, ptr %5, align 4, !tbaa !8
  store i32 %1, ptr %6, align 4, !tbaa !8
  store i32 %2, ptr %7, align 4, !tbaa !8
  store i32 %3, ptr %8, align 4, !tbaa !8
  call void @llvm.lifetime.start.p0(i64 4, ptr %9) #5
  %10 = load i32, ptr %5, align 4, !tbaa !8
  %11 = mul nsw i32 16839, %10
  %12 = load i32, ptr %6, align 4, !tbaa !8
  %13 = mul nsw i32 33059, %12
  %14 = add nsw i32 %11, %13
  %15 = load i32, ptr %7, align 4, !tbaa !8
  %16 = mul nsw i32 6420, %15
  %17 = add nsw i32 %14, %16
  store i32 %17, ptr %9, align 4, !tbaa !8
  %18 = load i32, ptr %9, align 4, !tbaa !8
  %19 = load i32, ptr %8, align 4, !tbaa !8
  %20 = add nsw i32 %18, %19
  %21 = add nsw i32 %20, 1048576
  %22 = ashr i32 %21, 16
  call void @llvm.lifetime.end.p0(i64 4, ptr %9) #5
  ret i32 %22
}

; Function Attrs: nounwind uwtable
define internal void @ConvertRGB24ToY_C(ptr noalias noundef %0, ptr noalias noundef %1, i32 noundef %2) #0 {
  %4 = alloca ptr, align 8
  %5 = alloca ptr, align 8
  %6 = alloca i32, align 4
  %7 = alloca i32, align 4
  store ptr %0, ptr %4, align 8, !tbaa !3
  store ptr %1, ptr %5, align 8, !tbaa !3
  store i32 %2, ptr %6, align 4, !tbaa !8
  call void @llvm.lifetime.start.p0(i64 4, ptr %7) #5
  store i32 0, ptr %7, align 4, !tbaa !8
  br label %8

8:                                                ; preds = %31, %3
  %9 = load i32, ptr %7, align 4, !tbaa !8
  %10 = load i32, ptr %6, align 4, !tbaa !8
  %11 = icmp slt i32 %9, %10
  br i1 %11, label %12, label %36

12:                                               ; preds = %8
  %13 = load ptr, ptr %4, align 8, !tbaa !3
  %14 = getelementptr inbounds i8, ptr %13, i64 0
  %15 = load i8, ptr %14, align 1, !tbaa !15
  %16 = zext i8 %15 to i32
  %17 = load ptr, ptr %4, align 8, !tbaa !3
  %18 = getelementptr inbounds i8, ptr %17, i64 1
  %19 = load i8, ptr %18, align 1, !tbaa !15
  %20 = zext i8 %19 to i32
  %21 = load ptr, ptr %4, align 8, !tbaa !3
  %22 = getelementptr inbounds i8, ptr %21, i64 2
  %23 = load i8, ptr %22, align 1, !tbaa !15
  %24 = zext i8 %23 to i32
  %25 = call i32 @VP8RGBToY(i32 noundef %16, i32 noundef %20, i32 noundef %24, i32 noundef 32768)
  %26 = trunc i32 %25 to i8
  %27 = load ptr, ptr %5, align 8, !tbaa !3
  %28 = load i32, ptr %7, align 4, !tbaa !8
  %29 = sext i32 %28 to i64
  %30 = getelementptr inbounds i8, ptr %27, i64 %29
  store i8 %26, ptr %30, align 1, !tbaa !15
  br label %31

31:                                               ; preds = %12
  %32 = load i32, ptr %7, align 4, !tbaa !8
  %33 = add nsw i32 %32, 1
  store i32 %33, ptr %7, align 4, !tbaa !8
  %34 = load ptr, ptr %4, align 8, !tbaa !3
  %35 = getelementptr inbounds i8, ptr %34, i64 3
  store ptr %35, ptr %4, align 8, !tbaa !3
  br label %8, !llvm.loop !30

36:                                               ; preds = %8
  call void @llvm.lifetime.end.p0(i64 4, ptr %7) #5
  ret void
}