; Function Attrs: nofree norecurse nosync nounwind memory(argmem: readwrite) uwtable
define internal void @ConvertRGB24ToY_C(ptr noalias noundef readonly captures(none) %0, ptr noalias noundef writeonly captures(none) %1, i32 noundef %2) #2 {
  %4 = icmp sgt i32 %2, 0
  br i1 %4, label %.lr.ph.preheader, label %._crit_edge

.lr.ph.preheader:                                 ; preds = %3
  %wide.trip.count = zext nneg i32 %2 to i64
  br label %.lr.ph

.lr.ph:                                           ; preds = %.lr.ph.preheader, %.lr.ph
  %indvars.iv = phi i64 [ 0, %.lr.ph.preheader ], [ %indvars.iv.next, %.lr.ph ]
  %.089 = phi ptr [ %0, %.lr.ph.preheader ], [ %22, %.lr.ph ]
  %5 = load i8, ptr %.089, align 1, !tbaa !11
  %6 = zext i8 %5 to i32
  %7 = getelementptr inbounds nuw i8, ptr %.089, i64 1
  %8 = load i8, ptr %7, align 1, !tbaa !11
  %9 = zext i8 %8 to i32
  %10 = getelementptr inbounds nuw i8, ptr %.089, i64 2
  %11 = load i8, ptr %10, align 1, !tbaa !11
  %12 = zext i8 %11 to i32
  %13 = mul nuw nsw i32 %6, 16839
  %14 = mul nuw nsw i32 %9, 33059
  %15 = mul nuw nsw i32 %12, 6420
  %16 = add nuw nsw i32 %13, 1081344
  %17 = add nuw nsw i32 %16, %14
  %18 = add nuw nsw i32 %17, %15
  %19 = lshr i32 %18, 16
  %20 = trunc nuw i32 %19 to i8
  %21 = getelementptr inbounds nuw i8, ptr %1, i64 %indvars.iv
  store i8 %20, ptr %21, align 1, !tbaa !11
  %indvars.iv.next = add nuw nsw i64 %indvars.iv, 1
  %22 = getelementptr inbounds nuw i8, ptr %.089, i64 3
  %exitcond.not = icmp eq i64 %indvars.iv.next, %wide.trip.count
  br i1 %exitcond.not, label %._crit_edge, label %.lr.ph, !llvm.loop !24

._crit_edge:                                      ; preds = %.lr.ph, %3
  ret void
}